target datalayout = "e-m:e-p270:32:32-p271:32:32-p272:64:64-i64:64-i128:128-f80:128-n8:16:32:64-S128"
target triple = "x86_64-pc-linux-gnu"

%struct.DdNode = type { i32, i32, ptr, %union.anon, i64 }
%union.anon = type { %struct.DdChildren }
%struct.DdChildren = type { ptr, ptr }

; Function Attrs: nounwind uwtable
define internal void @ddClearFlag(ptr noundef %0) #0 {
  %2 = alloca ptr, align 8
  store ptr %0, ptr %2, align 8
  %3 = load ptr, ptr %2, align 8
  %4 = getelementptr inbounds %struct.DdNode, ptr %3, i32 0, i32 2
  %5 = load ptr, ptr %4, align 8
  %6 = ptrtoint ptr %5 to i64
  %7 = and i64 %6, 1
  %8 = trunc i64 %7 to i32
  %9 = icmp ne i32 %8, 0
  br i1 %9, label %11, label %10

10:                                               ; preds = %1
  br label %37

11:                                               ; preds = %1
  %12 = load ptr, ptr %2, align 8
  %13 = getelementptr inbounds %struct.DdNode, ptr %12, i32 0, i32 2
  %14 = load ptr, ptr %13, align 8
  %15 = ptrtoint ptr %14 to i64
  %16 = and i64 %15, -2
  %17 = inttoptr i64 %16 to ptr
  %18 = load ptr, ptr %2, align 8
  %19 = getelementptr inbounds %struct.DdNode, ptr %18, i32 0, i32 2
  store ptr %17, ptr %19, align 8
  %20 = load ptr, ptr %2, align 8
  %21 = getelementptr inbounds %struct.DdNode, ptr %20, i32 0, i32 0
  %22 = load i32, ptr %21, align 8
  %23 = icmp eq i32 %22, 2147483647
  br i1 %23, label %24, label %25

24:                                               ; preds = %11
  br label %37

25:                                               ; preds = %11
  %26 = load ptr, ptr %2, align 8
  %27 = getelementptr inbounds %struct.DdNode, ptr %26, i32 0, i32 3
  %28 = getelementptr inbounds %struct.DdChildren, ptr %27, i32 0, i32 0
  %29 = load ptr, ptr %28, align 8
  call void @ddClearFlag(ptr noundef %29)
  %30 = load ptr, ptr %2, align 8
  %31 = getelementptr inbounds %struct.DdNode, ptr %30, i32 0, i32 3
  %32 = getelementptr inbounds %struct.DdChildren, ptr %31, i32 0, i32 1
  %33 = load ptr, ptr %32, align 8
  %34 = ptrtoint ptr %33 to i64
  %35 = and i64 %34, -2
  %36 = inttoptr i64 %35 to ptr
  call void @ddClearFlag(ptr noundef %36)
  br label %37

37:                                               ; preds = %25, %24, %10
  ret void
}