; Function Attrs: nofree nosync nounwind memory(readwrite, inaccessiblemem: none) uwtable
define internal fastcc void @ddClearFlag(ptr noundef captures(none) %0) unnamed_addr #6 {
  %2 = getelementptr inbounds nuw i8, ptr %0, i64 8
  %3 = load ptr, ptr %2, align 8
  %4 = ptrtoint ptr %3 to i64
  %5 = and i64 %4, 1
  %.not6 = icmp eq i64 %5, 0
  br i1 %.not6, label %._crit_edge, label %.lr.ph

.lr.ph:                                           ; preds = %1, %tailrecurse
  %6 = phi i64 [ %21, %tailrecurse ], [ %4, %1 ]
  %7 = phi ptr [ %19, %tailrecurse ], [ %2, %1 ]
  %.tr7 = phi ptr [ %18, %tailrecurse ], [ %0, %1 ]
  %8 = and i64 %6, -2
  %9 = inttoptr i64 %8 to ptr
  store ptr %9, ptr %7, align 8
  %10 = load i32, ptr %.tr7, align 8
  %11 = icmp eq i32 %10, 2147483647
  br i1 %11, label %._crit_edge, label %tailrecurse

tailrecurse:                                      ; preds = %.lr.ph
  %12 = getelementptr inbounds nuw i8, ptr %.tr7, i64 16
  %13 = load ptr, ptr %12, align 8
  tail call fastcc void @ddClearFlag(ptr noundef %13)
  %14 = getelementptr inbounds nuw i8, ptr %.tr7, i64 24
  %15 = load ptr, ptr %14, align 8
  %16 = ptrtoint ptr %15 to i64
  %17 = and i64 %16, -2
  %18 = inttoptr i64 %17 to ptr
  %19 = getelementptr inbounds nuw i8, ptr %18, i64 8
  %20 = load ptr, ptr %19, align 8
  %21 = ptrtoint ptr %20 to i64
  %22 = and i64 %21, 1
  %.not = icmp eq i64 %22, 0
  br i1 %.not, label %._crit_edge, label %.lr.ph

._crit_edge:                                      ; preds = %tailrecurse, %.lr.ph, %1
  ret void
}